; ModuleID = '16/832.cpp'
source_filename = "16/832.cpp"
target datalayout = "e-m:e-p270:32:32-p271:32:32-p272:64:64-i64:64-f80:128-n8:16:32:64-S128"
target triple = "x86_64-pc-linux-gnu"

%"class.std::ios_base::Init" = type { i8 }
%"class.std::basic_istream" = type { i32 (...)**, i64, %"class.std::basic_ios" }
%"class.std::basic_ios" = type { %"class.std::ios_base", %"class.std::basic_ostream"*, i8, i8, %"class.std::basic_streambuf"*, %"class.std::ctype"*, %"class.std::num_put"*, %"class.std::num_get"* }
%"class.std::ios_base" = type { i32 (...)**, i64, i64, i32, i32, i32, %"struct.std::ios_base::_Callback_list"*, %"struct.std::ios_base::_Words", [8 x %"struct.std::ios_base::_Words"], i32, %"struct.std::ios_base::_Words"*, %"class.std::locale" }
%"struct.std::ios_base::_Callback_list" = type { %"struct.std::ios_base::_Callback_list"*, void (i32, %"class.std::ios_base"*, i32)*, i32, i32 }
%"struct.std::ios_base::_Words" = type { i8*, i64 }
%"class.std::locale" = type { %"class.std::locale::_Impl"* }
%"class.std::locale::_Impl" = type { i32, %"class.std::locale::facet"**, i64, %"class.std::locale::facet"**, i8** }
%"class.std::locale::facet" = type <{ i32 (...)**, i32, [4 x i8] }>
%"class.std::basic_ostream" = type { i32 (...)**, %"class.std::basic_ios" }
%"class.std::basic_streambuf" = type { i32 (...)**, i8*, i8*, i8*, i8*, i8*, i8*, %"class.std::locale" }
%"class.std::ctype" = type <{ %"class.std::locale::facet.base", [4 x i8], %struct.__locale_struct*, i8, [7 x i8], i32*, i32*, i16*, i8, [256 x i8], [256 x i8], i8, [6 x i8] }>
%"class.std::locale::facet.base" = type <{ i32 (...)**, i32 }>
%struct.__locale_struct = type { [13 x %struct.__locale_data*], i16*, i32*, i32*, [13 x i8*] }
%struct.__locale_data = type opaque
%"class.std::num_put" = type { %"class.std::locale::facet.base", [4 x i8] }
%"class.std::num_get" = type { %"class.std::locale::facet.base", [4 x i8] }

@_ZStL8__ioinit = internal global %"class.std::ios_base::Init" zeroinitializer, align 1
@__dso_handle = external hidden global i8
@__const.main.t = private unnamed_addr constant [5 x i32] [i32 1, i32 10, i32 100, i32 1000, i32 10000], align 16
@_ZSt3cin = external dso_local global %"class.std::basic_istream", align 8
@_ZSt4cout = external dso_local global %"class.std::basic_ostream", align 8
@.str = private unnamed_addr constant [2 x i8] c"0\00", align 1
@llvm.global_ctors = appending global [1 x { i32, void ()*, i8* }] [{ i32, void ()*, i8* } { i32 65535, void ()* @_GLOBAL__sub_I_832.cpp, i8* null }]

; Function Attrs: noinline uwtable
define internal void @__cxx_global_var_init() #0 section ".text.startup" {
  call void @_ZNSt8ios_base4InitC1Ev(%"class.std::ios_base::Init"* @_ZStL8__ioinit)
  %1 = call i32 @__cxa_atexit(void (i8*)* bitcast (void (%"class.std::ios_base::Init"*)* @_ZNSt8ios_base4InitD1Ev to void (i8*)*), i8* getelementptr inbounds (%"class.std::ios_base::Init", %"class.std::ios_base::Init"* @_ZStL8__ioinit, i32 0, i32 0), i8* @__dso_handle) #3
  ret void
}

declare dso_local void @_ZNSt8ios_base4InitC1Ev(%"class.std::ios_base::Init"*) unnamed_addr #1

; Function Attrs: nounwind
declare dso_local void @_ZNSt8ios_base4InitD1Ev(%"class.std::ios_base::Init"*) unnamed_addr #2

; Function Attrs: nounwind
declare dso_local i32 @__cxa_atexit(void (i8*)*, i8*, i8*) #3

; Function Attrs: noinline norecurse uwtable
define dso_local i32 @main() #4 {
  %1 = alloca i32, align 4
  %2 = alloca [5 x i32], align 16
  %3 = alloca [6 x i32], align 16
  %4 = alloca i32, align 4
  %5 = alloca i32, align 4
  %6 = alloca i32, align 4
  %7 = alloca i32, align 4
  store i32 0, i32* %1, align 4
  %8 = bitcast [5 x i32]* %2 to i8*
  call void @llvm.memcpy.p0i8.p0i8.i64(i8* align 16 %8, i8* align 16 bitcast ([5 x i32]* @__const.main.t to i8*), i64 20, i1 false)
  %9 = call dereferenceable(280) %"class.std::basic_istream"* @_ZNSirsERi(%"class.std::basic_istream"* @_ZSt3cin, i32* dereferenceable(4) %4)
  %10 = load i32, i32* %4, align 4
  %11 = getelementptr inbounds [5 x i32], [5 x i32]* %2, i64 0, i64 4
  %12 = load i32, i32* %11, align 16
  %13 = icmp sge i32 %10, %12
  %14 = zext i1 %13 to i32
  %15 = load i32, i32* %4, align 4
  %16 = getelementptr inbounds [5 x i32], [5 x i32]* %2, i64 0, i64 3
  %17 = load i32, i32* %16, align 4
  %18 = icmp sge i32 %15, %17
  %19 = zext i1 %18 to i32
  %20 = add nsw i32 %14, %19
  %21 = load i32, i32* %4, align 4
  %22 = getelementptr inbounds [5 x i32], [5 x i32]* %2, i64 0, i64 2
  %23 = load i32, i32* %22, align 8
  %24 = icmp sge i32 %21, %23
  %25 = zext i1 %24 to i32
  %26 = add nsw i32 %20, %25
  %27 = load i32, i32* %4, align 4
  %28 = getelementptr inbounds [5 x i32], [5 x i32]* %2, i64 0, i64 1
  %29 = load i32, i32* %28, align 4
  %30 = icmp sge i32 %27, %29
  %31 = zext i1 %30 to i32
  %32 = add nsw i32 %26, %31
  %33 = load i32, i32* %4, align 4
  %34 = getelementptr inbounds [5 x i32], [5 x i32]* %2, i64 0, i64 0
  %35 = load i32, i32* %34, align 16
  %36 = icmp sge i32 %33, %35
  %37 = zext i1 %36 to i32
  %38 = add nsw i32 %32, %37
  store i32 %38, i32* %5, align 4
  store i32 1, i32* %6, align 4
  br label %39

39:                                               ; preds = %59, %0
  %40 = load i32, i32* %6, align 4
  %41 = load i32, i32* %5, align 4
  %42 = icmp sle i32 %40, %41
  br i1 %42, label %43, label %62

43:                                               ; preds = %39
  %44 = load i32, i32* %4, align 4
  %45 = load i32, i32* %6, align 4
  %46 = sext i32 %45 to i64
  %47 = getelementptr inbounds [5 x i32], [5 x i32]* %2, i64 0, i64 %46
  %48 = load i32, i32* %47, align 4
  %49 = srem i32 %44, %48
  %50 = load i32, i32* %6, align 4
  %51 = sub nsw i32 %50, 1
  %52 = sext i32 %51 to i64
  %53 = getelementptr inbounds [5 x i32], [5 x i32]* %2, i64 0, i64 %52
  %54 = load i32, i32* %53, align 4
  %55 = sdiv i32 %49, %54
  %56 = load i32, i32* %6, align 4
  %57 = sext i32 %56 to i64
  %58 = getelementptr inbounds [6 x i32], [6 x i32]* %3, i64 0, i64 %57
  store i32 %55, i32* %58, align 4
  br label %59

59:                                               ; preds = %43
  %60 = load i32, i32* %6, align 4
  %61 = add nsw i32 %60, 1
  store i32 %61, i32* %6, align 4
  br label %39

62:                                               ; preds = %39
  %63 = load i32, i32* %5, align 4
  %64 = icmp eq i32 %63, 0
  br i1 %64, label %65, label %67

65:                                               ; preds = %62
  %66 = call dereferenceable(272) %"class.std::basic_ostream"* @_ZStlsISt11char_traitsIcEERSt13basic_ostreamIcT_ES5_PKc(%"class.std::basic_ostream"* dereferenceable(272) @_ZSt4cout, i8* getelementptr inbounds ([2 x i8], [2 x i8]* @.str, i64 0, i64 0))
  br label %82

67:                                               ; preds = %62
  store i32 1, i32* %7, align 4
  br label %68

68:                                               ; preds = %78, %67
  %69 = load i32, i32* %7, align 4
  %70 = load i32, i32* %5, align 4
  %71 = icmp sle i32 %69, %70
  br i1 %71, label %72, label %81

72:                                               ; preds = %68
  %73 = load i32, i32* %7, align 4
  %74 = sext i32 %73 to i64
  %75 = getelementptr inbounds [6 x i32], [6 x i32]* %3, i64 0, i64 %74
  %76 = load i32, i32* %75, align 4
  %77 = call dereferenceable(272) %"class.std::basic_ostream"* @_ZNSolsEi(%"class.std::basic_ostream"* @_ZSt4cout, i32 %76)
  br label %78

78:                                               ; preds = %72
  %79 = load i32, i32* %7, align 4
  %80 = add nsw i32 %79, 1
  store i32 %80, i32* %7, align 4
  br label %68

81:                                               ; preds = %68
  br label %82

82:                                               ; preds = %81, %65
  ret i32 0
}

; Function Attrs: argmemonly nounwind willreturn
declare void @llvm.memcpy.p0i8.p0i8.i64(i8* noalias nocapture writeonly, i8* noalias nocapture readonly, i64, i1 immarg) #5

declare dso_local dereferenceable(280) %"class.std::basic_istream"* @_ZNSirsERi(%"class.std::basic_istream"*, i32* dereferenceable(4)) #1

declare dso_local dereferenceable(272) %"class.std::basic_ostream"* @_ZStlsISt11char_traitsIcEERSt13basic_ostreamIcT_ES5_PKc(%"class.std::basic_ostream"* dereferenceable(272), i8*) #1

declare dso_local dereferenceable(272) %"class.std::basic_ostream"* @_ZNSolsEi(%"class.std::basic_ostream"*, i32) #1

; Function Attrs: noinline uwtable
define internal void @_GLOBAL__sub_I_832.cpp() #0 section ".text.startup" {
  call void @__cxx_global_var_init()
  ret void
}


!llvm.module.flags = !{!0}
!llvm.ident = !{!1}

!0 = !{i32 1, !"wchar_size", i32 4}
!1 = !{!"clang version 10.0.0-4ubuntu1 "}
